; Function Attrs: nounwind uwtable
define zeroext i8 @l_Lean_Meta_isInstanceCore(ptr noundef %0, ptr noundef %1) local_unnamed_addr #1 {
  %3 = load ptr, ptr @l_Lean_Meta_instanceExtension, align 8, !tbaa !9
  %4 = getelementptr inbounds nuw i8, ptr %3, i64 16
  %5 = load ptr, ptr %4, align 8, !tbaa !9
  %6 = ptrtoint ptr %5 to i64
  %7 = and i64 %6, 1
  %.not = icmp eq i64 %7, 0
  br i1 %.not, label %8, label %lean_inc.exit19

8:                                                ; preds = %2
  %.val.i = load i32, ptr %5, align 4, !tbaa !4
  %9 = icmp sgt i32 %.val.i, 0
  br i1 %9, label %10, label %12, !prof !11

10:                                               ; preds = %8
  %11 = add nuw i32 %.val.i, 1
  store i32 %11, ptr %5, align 4, !tbaa !4
  br label %lean_inc.exit19

12:                                               ; preds = %8
  %.not.i24 = icmp eq i32 %.val.i, 0
  br i1 %.not.i24, label %lean_inc.exit19, label %13

13:                                               ; preds = %12
  tail call void @lean_inc_ref_cold(ptr noundef nonnull %5) #6
  br label %lean_inc.exit19

lean_inc.exit19:                                  ; preds = %13, %12, %10, %2
  %14 = getelementptr inbounds nuw i8, ptr %5, i64 8
  %15 = load ptr, ptr %14, align 8, !tbaa !9
  %16 = ptrtoint ptr %15 to i64
  %17 = and i64 %16, 1
  %.not31 = icmp eq i64 %17, 0
  br i1 %.not31, label %18, label %lean_inc.exit18

18:                                               ; preds = %lean_inc.exit19
  %.val.i25 = load i32, ptr %15, align 4, !tbaa !4
  %19 = icmp sgt i32 %.val.i25, 0
  br i1 %19, label %20, label %22, !prof !11

20:                                               ; preds = %18
  %21 = add nuw i32 %.val.i25, 1
  store i32 %21, ptr %15, align 4, !tbaa !4
  br label %lean_inc.exit18

22:                                               ; preds = %18
  %.not.i26 = icmp eq i32 %.val.i25, 0
  br i1 %.not.i26, label %lean_inc.exit18, label %23

23:                                               ; preds = %22
  tail call void @lean_inc_ref_cold(ptr noundef nonnull %15) #6
  br label %lean_inc.exit18

lean_inc.exit18:                                  ; preds = %23, %22, %20, %lean_inc.exit19
  br i1 %.not, label %24, label %lean_dec.exit17

24:                                               ; preds = %lean_inc.exit18
  %25 = load i32, ptr %5, align 4, !tbaa !4
  %26 = icmp sgt i32 %25, 1
  br i1 %26, label %27, label %29, !prof !11

27:                                               ; preds = %24
  %28 = add nsw i32 %25, -1
  store i32 %28, ptr %5, align 4, !tbaa !4
  br label %lean_dec.exit17

29:                                               ; preds = %24
  %.not.i = icmp eq i32 %25, 0
  br i1 %.not.i, label %lean_dec.exit17, label %30

30:                                               ; preds = %29
  tail call void @lean_dec_ref_cold(ptr noundef nonnull %5) #6
  br label %lean_dec.exit17

lean_dec.exit17:                                  ; preds = %30, %29, %27, %lean_inc.exit18
  %31 = getelementptr inbounds nuw i8, ptr %15, i64 32
  %32 = load i8, ptr %31, align 1, !tbaa !19
  br i1 %.not31, label %33, label %lean_dec.exit16

33:                                               ; preds = %lean_dec.exit17
  %34 = load i32, ptr %15, align 4, !tbaa !4
  %35 = icmp sgt i32 %34, 1
  br i1 %35, label %36, label %38, !prof !11

36:                                               ; preds = %33
  %37 = add nsw i32 %34, -1
  store i32 %37, ptr %15, align 4, !tbaa !4
  br label %lean_dec.exit16

38:                                               ; preds = %33
  %.not.i20 = icmp eq i32 %34, 0
  br i1 %.not.i20, label %lean_dec.exit16, label %39

39:                                               ; preds = %38
  tail call void @lean_dec_ref_cold(ptr noundef nonnull %15) #6
  br label %lean_dec.exit16

lean_dec.exit16:                                  ; preds = %39, %38, %36, %lean_dec.exit17
  %40 = load ptr, ptr @l_Lean_Meta_instInhabitedInstances, align 8, !tbaa !9
  %41 = load ptr, ptr @l_Lean_Meta_addInstance___closed__2, align 8, !tbaa !9
  %42 = tail call ptr @l_Lean_ScopedEnvExtension_getState___rarg(ptr noundef %40, ptr noundef %41, ptr noundef %0, i8 noundef zeroext %32) #6
  %43 = getelementptr inbounds nuw i8, ptr %42, i64 16
  %44 = load ptr, ptr %43, align 8, !tbaa !9
  %45 = ptrtoint ptr %44 to i64
  %46 = and i64 %45, 1
  %.not32 = icmp eq i64 %46, 0
  br i1 %.not32, label %47, label %lean_inc.exit

47:                                               ; preds = %lean_dec.exit16
  %.val.i28 = load i32, ptr %44, align 4, !tbaa !4
  %48 = icmp sgt i32 %.val.i28, 0
  br i1 %48, label %49, label %51, !prof !11

49:                                               ; preds = %47
  %50 = add nuw i32 %.val.i28, 1
  store i32 %50, ptr %44, align 4, !tbaa !4
  br label %lean_inc.exit

51:                                               ; preds = %47
  %.not.i29 = icmp eq i32 %.val.i28, 0
  br i1 %.not.i29, label %lean_inc.exit, label %52

52:                                               ; preds = %51
  tail call void @lean_inc_ref_cold(ptr noundef nonnull %44) #6
  br label %lean_inc.exit

lean_inc.exit:                                    ; preds = %52, %51, %49, %lean_dec.exit16
  %53 = ptrtoint ptr %42 to i64
  %54 = and i64 %53, 1
  %.not33 = icmp eq i64 %54, 0
  br i1 %.not33, label %55, label %lean_dec.exit

55:                                               ; preds = %lean_inc.exit
  %56 = load i32, ptr %42, align 4, !tbaa !4
  %57 = icmp sgt i32 %56, 1
  br i1 %57, label %58, label %60, !prof !11

58:                                               ; preds = %55
  %59 = add nsw i32 %56, -1
  store i32 %59, ptr %42, align 4, !tbaa !4
  br label %lean_dec.exit

60:                                               ; preds = %55
  %.not.i22 = icmp eq i32 %56, 0
  br i1 %.not.i22, label %lean_dec.exit, label %61

61:                                               ; preds = %60
  tail call void @lean_dec_ref_cold(ptr noundef nonnull %42) #6
  br label %lean_dec.exit

lean_dec.exit:                                    ; preds = %61, %60, %58, %lean_inc.exit
  %62 = tail call i64 @l_Lean_Name_hash___override(ptr noundef %1) #6
  %63 = tail call zeroext i8 @l_Lean_PersistentHashMap_containsAux___at_Lean_Meta_Instances_erase___spec__2(ptr noundef %44, i64 noundef %62, ptr noundef %1)
  ret i8 %63
}